target datalayout = "e-m:e-p270:32:32-p271:32:32-p272:64:64-i64:64-i128:128-f80:128-n8:16:32:64-S128"
target triple = "x86_64-pc-linux-gnu"

%struct.DdManager = type { %struct.DdNode, ptr, ptr, ptr, ptr, ptr, ptr, ptr, i32, i32, double, double, double, i32, i32, i32, i32, i32, i32, ptr, ptr, %struct.DdSubtable, i32, i32, i32, i32, i32, i32, i32, double, i32, i32, i32, ptr, i64, double, i32, ptr, ptr, ptr, ptr, ptr, ptr, ptr, i32, ptr, ptr, ptr, ptr, ptr, ptr, i32, i32, i32, double, i32, i32, i32, i32, double, double, i32, i32, i32, i32, i32, i32, i32, i32, i32, ptr, ptr, i32, i32, i32, i32, i32, i32, ptr, ptr, ptr, ptr, ptr, ptr, ptr, ptr, i32, i64, i64, i64, i32, i64, i64, double, double, double, double, double, double, i32, ptr, ptr, i64 }
%struct.DdNode = type { i32, i32, ptr, %union.anon, i64 }
%union.anon = type { %struct.DdChildren }
%struct.DdChildren = type { ptr, ptr }
%struct.DdSubtable = type { ptr, i32, i32, i32, i32, i32, i32, i32, i32, i32, i32, i32 }

; Function Attrs: nounwind uwtable
define internal ptr @cuddAddVectorComposeRecur(ptr noundef %0, ptr noundef %1, ptr noundef %2, ptr noundef %3, i32 noundef %4) #0 {
  %6 = alloca ptr, align 8
  %7 = alloca ptr, align 8
  %8 = alloca ptr, align 8
  %9 = alloca ptr, align 8
  %10 = alloca ptr, align 8
  %11 = alloca i32, align 4
  %12 = alloca ptr, align 8
  %13 = alloca ptr, align 8
  %14 = alloca ptr, align 8
  %15 = alloca i32, align 4
  %16 = alloca i64, align 8
  store ptr %0, ptr %7, align 8, !tbaa !3
  store ptr %1, ptr %8, align 8, !tbaa !38
  store ptr %2, ptr %9, align 8, !tbaa !8
  store ptr %3, ptr %10, align 8, !tbaa !44
  store i32 %4, ptr %11, align 4, !tbaa !10
  call void @llvm.lifetime.start.p0(i64 8, ptr %12) #6
  call void @llvm.lifetime.start.p0(i64 8, ptr %13) #6
  call void @llvm.lifetime.start.p0(i64 8, ptr %14) #6
  %17 = load ptr, ptr %9, align 8, !tbaa !8
  %18 = getelementptr inbounds nuw %struct.DdNode, ptr %17, i32 0, i32 0
  %19 = load i32, ptr %18, align 8, !tbaa !33
  %20 = icmp eq i32 %19, 2147483647
  br i1 %20, label %21, label %25

21:                                               ; preds = %5
  %22 = load ptr, ptr %9, align 8, !tbaa !8
  %23 = getelementptr inbounds nuw %struct.DdNode, ptr %22, i32 0, i32 0
  %24 = load i32, ptr %23, align 8, !tbaa !33
  br label %35

25:                                               ; preds = %5
  %26 = load ptr, ptr %7, align 8, !tbaa !3
  %27 = getelementptr inbounds nuw %struct.DdManager, ptr %26, i32 0, i32 37
  %28 = load ptr, ptr %27, align 8, !tbaa !32
  %29 = load ptr, ptr %9, align 8, !tbaa !8
  %30 = getelementptr inbounds nuw %struct.DdNode, ptr %29, i32 0, i32 0
  %31 = load i32, ptr %30, align 8, !tbaa !33
  %32 = zext i32 %31 to i64
  %33 = getelementptr inbounds nuw i32, ptr %28, i64 %32
  %34 = load i32, ptr %33, align 4, !tbaa !10
  br label %35

35:                                               ; preds = %25, %21
  %36 = phi i32 [ %24, %21 ], [ %34, %25 ]
  %37 = load i32, ptr %11, align 4, !tbaa !10
  %38 = icmp sgt i32 %36, %37
  br i1 %38, label %39, label %41

39:                                               ; preds = %35
  %40 = load ptr, ptr %9, align 8, !tbaa !8
  store ptr %40, ptr %6, align 8
  store i32 1, ptr %15, align 4
  br label %154

41:                                               ; preds = %35
  %42 = load ptr, ptr %8, align 8, !tbaa !38
  %43 = load ptr, ptr %9, align 8, !tbaa !8
  %44 = call ptr @cuddHashTableLookup1(ptr noundef %42, ptr noundef %43)
  store ptr %44, ptr %14, align 8, !tbaa !8
  %45 = icmp ne ptr %44, null
  br i1 %45, label %46, label %48

46:                                               ; preds = %41
  %47 = load ptr, ptr %14, align 8, !tbaa !8
  store ptr %47, ptr %6, align 8
  store i32 1, ptr %15, align 4
  br label %154

48:                                               ; preds = %41
  %49 = load ptr, ptr %7, align 8, !tbaa !3
  %50 = load ptr, ptr %8, align 8, !tbaa !38
  %51 = load ptr, ptr %9, align 8, !tbaa !8
  %52 = getelementptr inbounds nuw %struct.DdNode, ptr %51, i32 0, i32 3
  %53 = getelementptr inbounds nuw %struct.DdChildren, ptr %52, i32 0, i32 0
  %54 = load ptr, ptr %53, align 8, !tbaa !34
  %55 = load ptr, ptr %10, align 8, !tbaa !44
  %56 = load i32, ptr %11, align 4, !tbaa !10
  %57 = call ptr @cuddAddVectorComposeRecur(ptr noundef %49, ptr noundef %50, ptr noundef %54, ptr noundef %55, i32 noundef %56)
  store ptr %57, ptr %12, align 8, !tbaa !8
  %58 = load ptr, ptr %12, align 8, !tbaa !8
  %59 = icmp eq ptr %58, null
  br i1 %59, label %60, label %61

60:                                               ; preds = %48
  store ptr null, ptr %6, align 8
  store i32 1, ptr %15, align 4
  br label %154

61:                                               ; preds = %48
  %62 = load ptr, ptr %12, align 8, !tbaa !8
  %63 = ptrtoint ptr %62 to i64
  %64 = and i64 %63, -2
  %65 = inttoptr i64 %64 to ptr
  %66 = getelementptr inbounds nuw %struct.DdNode, ptr %65, i32 0, i32 1
  %67 = load i32, ptr %66, align 4, !tbaa !35
  %68 = add i32 %67, 1
  store i32 %68, ptr %66, align 4, !tbaa !35
  %69 = load ptr, ptr %7, align 8, !tbaa !3
  %70 = load ptr, ptr %8, align 8, !tbaa !38
  %71 = load ptr, ptr %9, align 8, !tbaa !8
  %72 = getelementptr inbounds nuw %struct.DdNode, ptr %71, i32 0, i32 3
  %73 = getelementptr inbounds nuw %struct.DdChildren, ptr %72, i32 0, i32 1
  %74 = load ptr, ptr %73, align 8, !tbaa !34
  %75 = load ptr, ptr %10, align 8, !tbaa !44
  %76 = load i32, ptr %11, align 4, !tbaa !10
  %77 = call ptr @cuddAddVectorComposeRecur(ptr noundef %69, ptr noundef %70, ptr noundef %74, ptr noundef %75, i32 noundef %76)
  store ptr %77, ptr %13, align 8, !tbaa !8
  %78 = load ptr, ptr %13, align 8, !tbaa !8
  %79 = icmp eq ptr %78, null
  br i1 %79, label %80, label %83

80:                                               ; preds = %61
  %81 = load ptr, ptr %7, align 8, !tbaa !3
  %82 = load ptr, ptr %12, align 8, !tbaa !8
  call void @Cudd_RecursiveDeref(ptr noundef %81, ptr noundef %82)
  store ptr null, ptr %6, align 8
  store i32 1, ptr %15, align 4
  br label %154

83:                                               ; preds = %61
  %84 = load ptr, ptr %13, align 8, !tbaa !8
  %85 = ptrtoint ptr %84 to i64
  %86 = and i64 %85, -2
  %87 = inttoptr i64 %86 to ptr
  %88 = getelementptr inbounds nuw %struct.DdNode, ptr %87, i32 0, i32 1
  %89 = load i32, ptr %88, align 4, !tbaa !35
  %90 = add i32 %89, 1
  store i32 %90, ptr %88, align 4, !tbaa !35
  %91 = load ptr, ptr %7, align 8, !tbaa !3
  %92 = load ptr, ptr %10, align 8, !tbaa !44
  %93 = load ptr, ptr %9, align 8, !tbaa !8
  %94 = getelementptr inbounds nuw %struct.DdNode, ptr %93, i32 0, i32 0
  %95 = load i32, ptr %94, align 8, !tbaa !33
  %96 = zext i32 %95 to i64
  %97 = getelementptr inbounds nuw ptr, ptr %92, i64 %96
  %98 = load ptr, ptr %97, align 8, !tbaa !8
  %99 = load ptr, ptr %12, align 8, !tbaa !8
  %100 = load ptr, ptr %13, align 8, !tbaa !8
  %101 = call ptr @cuddAddIteRecur(ptr noundef %91, ptr noundef %98, ptr noundef %99, ptr noundef %100)
  store ptr %101, ptr %14, align 8, !tbaa !8
  %102 = load ptr, ptr %14, align 8, !tbaa !8
  %103 = icmp eq ptr %102, null
  br i1 %103, label %104, label %109

104:                                              ; preds = %83
  %105 = load ptr, ptr %7, align 8, !tbaa !3
  %106 = load ptr, ptr %12, align 8, !tbaa !8
  call void @Cudd_RecursiveDeref(ptr noundef %105, ptr noundef %106)
  %107 = load ptr, ptr %7, align 8, !tbaa !3
  %108 = load ptr, ptr %13, align 8, !tbaa !8
  call void @Cudd_RecursiveDeref(ptr noundef %107, ptr noundef %108)
  store ptr null, ptr %6, align 8
  store i32 1, ptr %15, align 4
  br label %154

109:                                              ; preds = %83
  %110 = load ptr, ptr %14, align 8, !tbaa !8
  %111 = ptrtoint ptr %110 to i64
  %112 = and i64 %111, -2
  %113 = inttoptr i64 %112 to ptr
  %114 = getelementptr inbounds nuw %struct.DdNode, ptr %113, i32 0, i32 1
  %115 = load i32, ptr %114, align 4, !tbaa !35
  %116 = add i32 %115, 1
  store i32 %116, ptr %114, align 4, !tbaa !35
  %117 = load ptr, ptr %7, align 8, !tbaa !3
  %118 = load ptr, ptr %12, align 8, !tbaa !8
  call void @Cudd_RecursiveDeref(ptr noundef %117, ptr noundef %118)
  %119 = load ptr, ptr %7, align 8, !tbaa !3
  %120 = load ptr, ptr %13, align 8, !tbaa !8
  call void @Cudd_RecursiveDeref(ptr noundef %119, ptr noundef %120)
  %121 = load ptr, ptr %9, align 8, !tbaa !8
  %122 = getelementptr inbounds nuw %struct.DdNode, ptr %121, i32 0, i32 1
  %123 = load i32, ptr %122, align 4, !tbaa !35
  %124 = icmp ne i32 %123, 1
  br i1 %124, label %125, label %145

125:                                              ; preds = %109
  call void @llvm.lifetime.start.p0(i64 8, ptr %16) #6
  %126 = load ptr, ptr %9, align 8, !tbaa !8
  %127 = getelementptr inbounds nuw %struct.DdNode, ptr %126, i32 0, i32 1
  %128 = load i32, ptr %127, align 4, !tbaa !35
  %129 = zext i32 %128 to i64
  store i64 %129, ptr %16, align 8, !tbaa !43
  %130 = load i64, ptr %16, align 8, !tbaa !43
  %131 = add nsw i64 %130, -1
  store i64 %131, ptr %16, align 8, !tbaa !43
  %132 = load ptr, ptr %8, align 8, !tbaa !38
  %133 = load ptr, ptr %9, align 8, !tbaa !8
  %134 = load ptr, ptr %14, align 8, !tbaa !8
  %135 = load i64, ptr %16, align 8, !tbaa !43
  %136 = call i32 @cuddHashTableInsert1(ptr noundef %132, ptr noundef %133, ptr noundef %134, i64 noundef %135)
  %137 = icmp ne i32 %136, 0
  br i1 %137, label %141, label %138

138:                                              ; preds = %125
  %139 = load ptr, ptr %7, align 8, !tbaa !3
  %140 = load ptr, ptr %14, align 8, !tbaa !8
  call void @Cudd_RecursiveDeref(ptr noundef %139, ptr noundef %140)
  store ptr null, ptr %6, align 8
  store i32 1, ptr %15, align 4
  br label %142

141:                                              ; preds = %125
  store i32 0, ptr %15, align 4
  br label %142

142:                                              ; preds = %141, %138
  call void @llvm.lifetime.end.p0(i64 8, ptr %16) #6
  %143 = load i32, ptr %15, align 4
  switch i32 %143, label %154 [
    i32 0, label %144
  ]

144:                                              ; preds = %142
  br label %145

145:                                              ; preds = %144, %109
  %146 = load ptr, ptr %14, align 8, !tbaa !8
  %147 = ptrtoint ptr %146 to i64
  %148 = and i64 %147, -2
  %149 = inttoptr i64 %148 to ptr
  %150 = getelementptr inbounds nuw %struct.DdNode, ptr %149, i32 0, i32 1
  %151 = load i32, ptr %150, align 4, !tbaa !35
  %152 = add i32 %151, -1
  store i32 %152, ptr %150, align 4, !tbaa !35
  %153 = load ptr, ptr %14, align 8, !tbaa !8
  store ptr %153, ptr %6, align 8
  store i32 1, ptr %15, align 4
  br label %154

154:                                              ; preds = %145, %142, %104, %80, %60, %46, %39
  call void @llvm.lifetime.end.p0(i64 8, ptr %14) #6
  call void @llvm.lifetime.end.p0(i64 8, ptr %13) #6
  call void @llvm.lifetime.end.p0(i64 8, ptr %12) #6
  %155 = load ptr, ptr %6, align 8
  ret ptr %155
}