; Function Attrs: nounwind uwtable
define internal fastcc ptr @cuddAddVectorComposeRecur(ptr noundef %0, ptr noundef nonnull %1, ptr noundef %2, ptr noundef %3, i32 noundef range(i32 -2147483648, 2147483647) %4) unnamed_addr #0 {
  %6 = load i32, ptr %2, align 8, !tbaa !30
  %7 = icmp eq i32 %6, 2147483647
  br i1 %7, label %.thread, label %8

8:                                                ; preds = %5
  %9 = getelementptr inbounds nuw i8, ptr %0, i64 312
  %10 = load ptr, ptr %9, align 8, !tbaa !29
  %11 = zext i32 %6 to i64
  %12 = getelementptr inbounds nuw i32, ptr %10, i64 %11
  %13 = load i32, ptr %12, align 4, !tbaa !31
  %14 = icmp sgt i32 %13, %4
  br i1 %14, label %.thread, label %15

15:                                               ; preds = %8
  %16 = tail call ptr @cuddHashTableLookup1(ptr noundef nonnull %1, ptr noundef nonnull %2) #7
  %.not = icmp eq ptr %16, null
  br i1 %.not, label %17, label %.thread

17:                                               ; preds = %15
  %18 = getelementptr inbounds nuw i8, ptr %2, i64 16
  %19 = load ptr, ptr %18, align 8, !tbaa !32
  %20 = tail call fastcc ptr @cuddAddVectorComposeRecur(ptr noundef nonnull %0, ptr noundef %1, ptr noundef %19, ptr noundef %3, i32 noundef %4)
  %21 = icmp eq ptr %20, null
  br i1 %21, label %.thread, label %22

22:                                               ; preds = %17
  %23 = ptrtoint ptr %20 to i64
  %24 = and i64 %23, -2
  %25 = inttoptr i64 %24 to ptr
  %26 = getelementptr inbounds nuw i8, ptr %25, i64 4
  %27 = load i32, ptr %26, align 4, !tbaa !33
  %28 = add i32 %27, 1
  store i32 %28, ptr %26, align 4, !tbaa !33
  %29 = getelementptr inbounds nuw i8, ptr %2, i64 24
  %30 = load ptr, ptr %29, align 8, !tbaa !32
  %31 = tail call fastcc ptr @cuddAddVectorComposeRecur(ptr noundef nonnull %0, ptr noundef %1, ptr noundef %30, ptr noundef %3, i32 noundef %4)
  %32 = icmp eq ptr %31, null
  br i1 %32, label %33, label %34

33:                                               ; preds = %22
  tail call void @Cudd_RecursiveDeref(ptr noundef nonnull %0, ptr noundef nonnull %20) #7
  br label %.thread

34:                                               ; preds = %22
  %35 = ptrtoint ptr %31 to i64
  %36 = and i64 %35, -2
  %37 = inttoptr i64 %36 to ptr
  %38 = getelementptr inbounds nuw i8, ptr %37, i64 4
  %39 = load i32, ptr %38, align 4, !tbaa !33
  %40 = add i32 %39, 1
  store i32 %40, ptr %38, align 4, !tbaa !33
  %41 = load i32, ptr %2, align 8, !tbaa !30
  %42 = zext i32 %41 to i64
  %43 = getelementptr inbounds nuw ptr, ptr %3, i64 %42
  %44 = load ptr, ptr %43, align 8, !tbaa !25
  %45 = tail call ptr @cuddAddIteRecur(ptr noundef nonnull %0, ptr noundef %44, ptr noundef nonnull %20, ptr noundef nonnull %31) #7
  %46 = icmp eq ptr %45, null
  br i1 %46, label %47, label %48

47:                                               ; preds = %34
  tail call void @Cudd_RecursiveDeref(ptr noundef nonnull %0, ptr noundef nonnull %20) #7
  tail call void @Cudd_RecursiveDeref(ptr noundef nonnull %0, ptr noundef nonnull %31) #7
  br label %.thread

48:                                               ; preds = %34
  %49 = ptrtoint ptr %45 to i64
  %50 = and i64 %49, -2
  %51 = inttoptr i64 %50 to ptr
  %52 = getelementptr inbounds nuw i8, ptr %51, i64 4
  %53 = load i32, ptr %52, align 4, !tbaa !33
  %54 = add i32 %53, 1
  store i32 %54, ptr %52, align 4, !tbaa !33
  tail call void @Cudd_RecursiveDeref(ptr noundef nonnull %0, ptr noundef nonnull %20) #7
  tail call void @Cudd_RecursiveDeref(ptr noundef nonnull %0, ptr noundef nonnull %31) #7
  %55 = getelementptr inbounds nuw i8, ptr %2, i64 4
  %56 = load i32, ptr %55, align 4, !tbaa !33
  %.not60 = icmp eq i32 %56, 1
  br i1 %.not60, label %.critedge, label %57

57:                                               ; preds = %48
  %58 = zext i32 %56 to i64
  %59 = add nsw i64 %58, -1
  %60 = tail call i32 @cuddHashTableInsert1(ptr noundef nonnull %1, ptr noundef nonnull %2, ptr noundef nonnull %45, i64 noundef %59) #7
  %.not61.not = icmp eq i32 %60, 0
  br i1 %.not61.not, label %61, label %.critedge

61:                                               ; preds = %57
  tail call void @Cudd_RecursiveDeref(ptr noundef nonnull %0, ptr noundef nonnull %45) #7
  br label %.thread

.critedge:                                        ; preds = %57, %48
  %62 = load i32, ptr %52, align 4, !tbaa !33
  %63 = add i32 %62, -1
  store i32 %63, ptr %52, align 4, !tbaa !33
  br label %.thread

.thread:                                          ; preds = %5, %61, %17, %15, %8, %.critedge, %47, %33
  %.0 = phi ptr [ null, %33 ], [ null, %47 ], [ %45, %.critedge ], [ null, %61 ], [ %2, %8 ], [ %16, %15 ], [ null, %17 ], [ %2, %5 ]
  ret ptr %.0
}